target datalayout = "e-m:e-p270:32:32-p271:32:32-p272:64:64-i64:64-i128:128-f80:128-n8:16:32:64-S128"
target triple = "x86_64-pc-linux-gnu"

@OPF = internal global ptr null, align 8
@.str.312 = private unnamed_addr constant [21 x i8] c"%Y-%m-%d %H:%M:%S %Z\00", align 1
@.str.313 = private unnamed_addr constant [11 x i8] c"-- %s %s\0A\0A\00", align 1

; Function Attrs: nounwind uwtable
define internal void @dumpTimestamp(ptr noundef %0) #0 {
  %2 = alloca ptr, align 8
  %3 = alloca [64 x i8], align 16
  %4 = alloca i64, align 8
  store ptr %0, ptr %2, align 8
  call void @llvm.lifetime.start.p0(i64 64, ptr %3) #11
  call void @llvm.lifetime.start.p0(i64 8, ptr %4) #11
  %5 = call i64 @time(ptr noundef null) #11
  store i64 %5, ptr %4, align 8
  %6 = getelementptr inbounds [64 x i8], ptr %3, i64 0, i64 0
  %7 = call ptr @localtime(ptr noundef %4) #11
  %8 = call i64 @strftime(ptr noundef %6, i64 noundef 64, ptr noundef @.str.312, ptr noundef %7) #11
  %9 = icmp ne i64 %8, 0
  br i1 %9, label %10, label %15

10:                                               ; preds = %1
  %11 = load ptr, ptr @OPF, align 8
  %12 = load ptr, ptr %2, align 8
  %13 = getelementptr inbounds [64 x i8], ptr %3, i64 0, i64 0
  %14 = call i32 (ptr, ptr, ...) @pg_fprintf(ptr noundef %11, ptr noundef @.str.313, ptr noundef %12, ptr noundef %13)
  br label %15

15:                                               ; preds = %10, %1
  call void @llvm.lifetime.end.p0(i64 8, ptr %4) #11
  call void @llvm.lifetime.end.p0(i64 64, ptr %3) #11
  ret void
}