; Function Attrs: nounwind uwtable
define internal fastcc void @dumpTimestamp(ptr noundef %0) unnamed_addr #4 {
  %2 = alloca [64 x i8], align 16
  %3 = alloca i64, align 8
  call void @llvm.lifetime.start.p0(i64 64, ptr nonnull %2) #15
  call void @llvm.lifetime.start.p0(i64 8, ptr nonnull %3) #15
  %4 = tail call i64 @time(ptr noundef null) #15
  store i64 %4, ptr %3, align 8
  %5 = call ptr @localtime(ptr noundef nonnull %3) #15
  %6 = call i64 @strftime(ptr noundef nonnull %2, i64 noundef 64, ptr noundef nonnull @.str.312, ptr noundef %5) #15
  %.not = icmp eq i64 %6, 0
  br i1 %.not, label %10, label %7

7:                                                ; preds = %1
  %8 = load ptr, ptr @OPF, align 8
  %9 = call i32 (ptr, ptr, ...) @pg_fprintf(ptr noundef %8, ptr noundef nonnull @.str.313, ptr noundef %0, ptr noundef nonnull %2) #15
  br label %10

10:                                               ; preds = %7, %1
  call void @llvm.lifetime.end.p0(i64 8, ptr nonnull %3) #15
  call void @llvm.lifetime.end.p0(i64 64, ptr nonnull %2) #15
  ret void
}